target datalayout = "e-m:e-p270:32:32-p271:32:32-p272:64:64-i64:64-i128:128-f80:128-n8:16:32:64-S128"
target triple = "x86_64-pc-linux-gnu"

%struct.expert_field = type { i32, i32 }

@ei_c2_c3_c4_format = internal global %struct.expert_field zeroinitializer, align 4
@.str.700 = private unnamed_addr constant [66 x i8] c"DOF Violation: Type.3.1: Compressed 32-bit Compression Mandatory.\00", align 1

; Function Attrs: null_pointer_is_valid sspstrong uwtable
define internal void @validate_c4(ptr noundef %0, ptr noundef %1, i32 noundef %2, i32 noundef %3) #0 {
  %5 = alloca ptr, align 8
  %6 = alloca ptr, align 8
  %7 = alloca i32, align 4
  %8 = alloca i32, align 4
  store ptr %0, ptr %5, align 8
  store ptr %1, ptr %6, align 8
  store i32 %2, ptr %7, align 4
  store i32 %3, ptr %8, align 4
  %9 = load i32, ptr %8, align 4
  %10 = icmp sgt i32 %9, 1
  br i1 %10, label %11, label %18

11:                                               ; preds = %4
  %12 = load i32, ptr %7, align 4
  %13 = icmp ult i32 %12, 128
  br i1 %13, label %14, label %18

14:                                               ; preds = %11
  %15 = load ptr, ptr %5, align 8
  %16 = load ptr, ptr %6, align 8
  %17 = call ptr (ptr, ptr, ptr, ptr, ...) @expert_add_info_format(ptr noundef %15, ptr noundef %16, ptr noundef @ei_c2_c3_c4_format, ptr noundef @.str.700)
  br label %18

18:                                               ; preds = %14, %11, %4
  %19 = load i32, ptr %8, align 4
  %20 = icmp sgt i32 %19, 2
  br i1 %20, label %21, label %28

21:                                               ; preds = %18
  %22 = load i32, ptr %7, align 4
  %23 = icmp ult i32 %22, 16384
  br i1 %23, label %24, label %28

24:                                               ; preds = %21
  %25 = load ptr, ptr %5, align 8
  %26 = load ptr, ptr %6, align 8
  %27 = call ptr (ptr, ptr, ptr, ptr, ...) @expert_add_info_format(ptr noundef %25, ptr noundef %26, ptr noundef @ei_c2_c3_c4_format, ptr noundef @.str.700)
  br label %28

28:                                               ; preds = %24, %21, %18
  ret void
}