; Function Attrs: null_pointer_is_valid sspstrong uwtable
define internal fastcc void @validate_c4(ptr noundef %0, ptr noundef %1, i32 noundef %2, i32 noundef %3) unnamed_addr #0 {
  %5 = icmp sgt i32 %3, 1
  %6 = icmp ult i32 %2, 128
  %or.cond = and i1 %6, %5
  br i1 %or.cond, label %7, label %9

7:                                                ; preds = %4
  %8 = tail call ptr (ptr, ptr, ptr, ptr, ...) @expert_add_info_format(ptr noundef %0, ptr noundef %1, ptr noundef nonnull @ei_c2_c3_c4_format, ptr noundef nonnull @.str.700)
  br label %9

9:                                                ; preds = %7, %4
  %10 = icmp sgt i32 %3, 2
  %11 = icmp ult i32 %2, 16384
  %or.cond3 = and i1 %11, %10
  br i1 %or.cond3, label %12, label %14

12:                                               ; preds = %9
  %13 = tail call ptr (ptr, ptr, ptr, ptr, ...) @expert_add_info_format(ptr noundef %0, ptr noundef %1, ptr noundef nonnull @ei_c2_c3_c4_format, ptr noundef nonnull @.str.700)
  br label %14

14:                                               ; preds = %12, %9
  ret void
}